(lp0
S'poi'
p1
aS'salary'
p2
aS'total_payments'
p3
aS'bonus'
p4
aS'total_stock_value'
p5
aS'deferred_income'
p6
aS'exercised_stock_options'
p7
aS'long_term_incentive'
p8
aS'director_fees'
p9
aS'poi_tot'
p10
a.